; Function Attrs: mustprogress nounwind uwtable
define noundef zeroext i1 @_ZN5folly13setThreadNameENSt6thread2idENS_5RangeIPKcEE(i64 %0, ptr %1, ptr %2) local_unnamed_addr #8 {
  %4 = alloca [16 x i8], align 16
  %5 = ptrtoint ptr %2 to i64
  %6 = ptrtoint ptr %1 to i64
  %7 = sub i64 %5, %6
  %.sroa.speculated.i.i = tail call i64 @llvm.umin.i64(i64 %7, i64 15)
  call void @llvm.lifetime.start.p0(i64 16, ptr nonnull %4) #12
  call void @llvm.memset.p0.i64(ptr noundef nonnull align 16 dereferenceable(16) %4, i8 0, i64 16, i1 false)
  call void @llvm.memcpy.p0.p0.i64(ptr nonnull align 16 %4, ptr align 1 %1, i64 %.sroa.speculated.i.i, i1 false)
  %8 = call i32 @pthread_setname_np(i64 noundef %0, ptr noundef nonnull %4) #12
  %9 = icmp eq i32 %8, 0
  call void @llvm.lifetime.end.p0(i64 16, ptr nonnull %4) #12
  ret i1 %9
}